; Function Attrs: mustprogress uwtable
define void @_ZN5arrow8internal9DelEnvVarERKNSt7__cxx1112basic_stringIcSt11char_traitsIcESaIcEEE(ptr dead_on_unwind noalias writable sret(%"class.arrow::Status") align 8 %0, ptr noundef nonnull readonly align 8 captures(none) dereferenceable(32) %1) local_unnamed_addr #3 {
  %3 = load ptr, ptr %1, align 8, !tbaa !11
  tail call void @llvm.experimental.noalias.scope.decl(metadata !522)
  %4 = tail call i32 @unsetenv(ptr noundef readonly %3) #38, !noalias !522
  %5 = icmp eq i32 %4, 0
  br i1 %5, label %6, label %7

6:                                                ; preds = %2
  store ptr null, ptr %0, align 8, !tbaa !89, !alias.scope !525
  br label %_ZN5arrow8internal9DelEnvVarEPKc.exit

7:                                                ; preds = %2
  tail call void @_ZN5arrow6Status8FromArgsIJRA37_KcEEES0_NS_10StatusCodeEDpOT_(ptr dead_on_unwind writable sret(%"class.arrow::Status") align 8 %0, i8 noundef signext 4, ptr noundef nonnull align 1 dereferenceable(37) @.str.22)
  br label %_ZN5arrow8internal9DelEnvVarEPKc.exit

_ZN5arrow8internal9DelEnvVarEPKc.exit:            ; preds = %6, %7
  ret void
}